target datalayout = "e-m:e-p270:32:32-p271:32:32-p272:64:64-i64:64-i128:128-f80:128-n8:16:32:64-S128"
target triple = "x86_64-unknown-linux-gnu"

%"class.rocksdb::FlushBlockBySizePolicy" = type { %"class.rocksdb::FlushBlockPolicy", i64, i64, i8, ptr }
%"class.rocksdb::FlushBlockPolicy" = type { ptr }

@_ZTVN7rocksdb22FlushBlockBySizePolicyE = linkonce_odr unnamed_addr constant { [5 x ptr] } { [5 x ptr] [ptr null, ptr null, ptr @_ZN7rocksdb22FlushBlockBySizePolicy6UpdateERKNS_5SliceES3_, ptr @_ZN7rocksdb22FlushBlockBySizePolicyD2Ev, ptr @_ZN7rocksdb22FlushBlockBySizePolicyD0Ev] }, comdat, align 8
@_ZTVN7rocksdb16FlushBlockPolicyE = linkonce_odr unnamed_addr constant { [5 x ptr] } { [5 x ptr] [ptr null, ptr null, ptr @__cxa_pure_virtual, ptr @_ZN7rocksdb16FlushBlockPolicyD2Ev, ptr @_ZN7rocksdb16FlushBlockPolicyD0Ev] }, comdat, align 8

; Function Attrs: mustprogress nounwind uwtable
define linkonce_odr void @_ZN7rocksdb16FlushBlockPolicyC2Ev(ptr noundef nonnull align 8 dereferenceable(8) %this) unnamed_addr #1 comdat align 2 {
entry:
  %this.addr = alloca ptr, align 8
  store ptr %this, ptr %this.addr, align 8
  %this1 = load ptr, ptr %this.addr, align 8
  store ptr getelementptr inbounds ({ [5 x ptr] }, ptr @_ZTVN7rocksdb16FlushBlockPolicyE, i32 0, i32 0, i32 2), ptr %this1, align 8
  ret void
}

; Function Attrs: mustprogress nounwind uwtable
define linkonce_odr void @_ZN7rocksdb22FlushBlockBySizePolicyC2EmmbRKNS_12BlockBuilderE(ptr noundef nonnull align 8 dereferenceable(40) %this, i64 noundef %block_size, i64 noundef %block_size_deviation, i1 noundef zeroext %align, ptr noundef nonnull align 8 dereferenceable(176) %data_block_builder) unnamed_addr #1 comdat align 2 {
entry:
  %this.addr = alloca ptr, align 8
  %block_size.addr = alloca i64, align 8
  %block_size_deviation.addr = alloca i64, align 8
  %align.addr = alloca i8, align 1
  %data_block_builder.addr = alloca ptr, align 8
  store ptr %this, ptr %this.addr, align 8
  store i64 %block_size, ptr %block_size.addr, align 8
  store i64 %block_size_deviation, ptr %block_size_deviation.addr, align 8
  %frombool = zext i1 %align to i8
  store i8 %frombool, ptr %align.addr, align 1
  store ptr %data_block_builder, ptr %data_block_builder.addr, align 8
  %this1 = load ptr, ptr %this.addr, align 8
  call void @_ZN7rocksdb16FlushBlockPolicyC2Ev(ptr noundef nonnull align 8 dereferenceable(8) %this1) #3
  store ptr getelementptr inbounds ({ [5 x ptr] }, ptr @_ZTVN7rocksdb22FlushBlockBySizePolicyE, i32 0, i32 0, i32 2), ptr %this1, align 8
  %block_size_ = getelementptr inbounds %"class.rocksdb::FlushBlockBySizePolicy", ptr %this1, i32 0, i32 1
  %0 = load i64, ptr %block_size.addr, align 8
  store i64 %0, ptr %block_size_, align 8
  %block_size_deviation_limit_ = getelementptr inbounds %"class.rocksdb::FlushBlockBySizePolicy", ptr %this1, i32 0, i32 2
  %1 = load i64, ptr %block_size.addr, align 8
  %2 = load i64, ptr %block_size_deviation.addr, align 8
  %sub = sub i64 100, %2
  %mul = mul i64 %1, %sub
  %add = add i64 %mul, 99
  %div = udiv i64 %add, 100
  store i64 %div, ptr %block_size_deviation_limit_, align 8
  %align_ = getelementptr inbounds %"class.rocksdb::FlushBlockBySizePolicy", ptr %this1, i32 0, i32 3
  %3 = load i8, ptr %align.addr, align 1
  %tobool = trunc i8 %3 to i1
  %frombool2 = zext i1 %tobool to i8
  store i8 %frombool2, ptr %align_, align 8
  %data_block_builder_ = getelementptr inbounds %"class.rocksdb::FlushBlockBySizePolicy", ptr %this1, i32 0, i32 4
  %4 = load ptr, ptr %data_block_builder.addr, align 8
  store ptr %4, ptr %data_block_builder_, align 8
  ret void
}

; Function Attrs: mustprogress uwtable
define noundef ptr @_ZN7rocksdb29FlushBlockBySizePolicyFactory19NewFlushBlockPolicyEmiRKNS_12BlockBuilderE(i64 noundef %size, i32 noundef %deviation, ptr noundef nonnull align 8 dereferenceable(176) %data_block_builder) #0 align 2 personality ptr @__gxx_personality_v0 {
entry:
  %size.addr = alloca i64, align 8
  %deviation.addr = alloca i32, align 4
  %data_block_builder.addr = alloca ptr, align 8
  %exn.slot = alloca ptr, align 8
  %ehselector.slot = alloca i32, align 4
  store i64 %size, ptr %size.addr, align 8
  store i32 %deviation, ptr %deviation.addr, align 4
  store ptr %data_block_builder, ptr %data_block_builder.addr, align 8
  %call = call noalias noundef nonnull ptr @_Znwm(i64 noundef 40) #16
  %0 = load i64, ptr %size.addr, align 8
  %1 = load i32, ptr %deviation.addr, align 4
  %conv = sext i32 %1 to i64
  %2 = load ptr, ptr %data_block_builder.addr, align 8
  invoke void @_ZN7rocksdb22FlushBlockBySizePolicyC2EmmbRKNS_12BlockBuilderE(ptr noundef nonnull align 8 dereferenceable(40) %call, i64 noundef %0, i64 noundef %conv, i1 noundef zeroext false, ptr noundef nonnull align 8 dereferenceable(176) %2)
          to label %invoke.cont unwind label %lpad

invoke.cont:                                      ; preds = %entry
  ret ptr %call

lpad:                                             ; preds = %entry
  %3 = landingpad { ptr, i32 }
          cleanup
  %4 = extractvalue { ptr, i32 } %3, 0
  store ptr %4, ptr %exn.slot, align 8
  %5 = extractvalue { ptr, i32 } %3, 1
  store i32 %5, ptr %ehselector.slot, align 4
  call void @_ZdlPv(ptr noundef %call) #17
  br label %eh.resume

eh.resume:                                        ; preds = %lpad
  %exn = load ptr, ptr %exn.slot, align 8
  %sel = load i32, ptr %ehselector.slot, align 4
  %lpad.val = insertvalue { ptr, i32 } poison, ptr %exn, 0
  %lpad.val1 = insertvalue { ptr, i32 } %lpad.val, i32 %sel, 1
  resume { ptr, i32 } %lpad.val1
}